; Function Attrs: nounwind uwtable
define noalias noundef ptr @Gia_ManCollectBugTrace(ptr noundef readonly captures(none) %0, ptr noundef readonly %1, i32 noundef %2) local_unnamed_addr #0 {
Vec_IntPush.exit:
  %3 = tail call noalias dereferenceable_or_null(16) ptr @malloc(i64 noundef 16) #21
  %4 = getelementptr inbounds nuw i8, ptr %3, i64 4
  store i32 16, ptr %3, align 8
  %5 = tail call noalias dereferenceable_or_null(64) ptr @malloc(i64 noundef 64) #21
  %6 = getelementptr inbounds nuw i8, ptr %3, i64 8
  store ptr %5, ptr %6, align 8
  store i32 1, ptr %4, align 4
  store i32 %2, ptr %5, align 4
  %.not18 = icmp eq ptr %1, null
  br i1 %.not18, label %Vec_IntReverseOrder.exit, label %.lr.ph

.lr.ph:                                           ; preds = %Vec_IntPush.exit
  %7 = getelementptr i8, ptr %0, i64 32
  br label %8

thread-pre-split:                                 ; preds = %40
  %.pr = load i32, ptr %4, align 4
  br label %8

8:                                                ; preds = %thread-pre-split, %.lr.ph
  %9 = phi i32 [ %.pr, %thread-pre-split ], [ 1, %.lr.ph ]
  %.019 = phi ptr [ %44, %thread-pre-split ], [ %1, %.lr.ph ]
  %10 = getelementptr inbounds nuw i8, ptr %.019, i64 4
  %11 = load i32, ptr %10, align 4
  %12 = load i32, ptr %3, align 8
  %13 = icmp eq i32 %9, %12
  br i1 %13, label %14, label %.Vec_IntGrow.exit10_crit_edge.i11

.Vec_IntGrow.exit10_crit_edge.i11:                ; preds = %8
  %.pre.i13 = load ptr, ptr %6, align 8
  br label %Vec_IntPush.exit17

14:                                               ; preds = %8
  %15 = icmp slt i32 %9, 16
  br i1 %15, label %16, label %23

16:                                               ; preds = %14
  %17 = load ptr, ptr %6, align 8
  %.not9.i.i15 = icmp eq ptr %17, null
  br i1 %.not9.i.i15, label %20, label %18

18:                                               ; preds = %16
  %19 = tail call dereferenceable_or_null(64) ptr @realloc(ptr noundef nonnull %17, i64 noundef 64) #23
  br label %Vec_IntGrow.exit.i16

20:                                               ; preds = %16
  %21 = tail call noalias dereferenceable_or_null(64) ptr @malloc(i64 noundef 64) #21
  br label %Vec_IntGrow.exit.i16

Vec_IntGrow.exit.i16:                             ; preds = %20, %18
  %22 = phi ptr [ %19, %18 ], [ %21, %20 ]
  store ptr %22, ptr %6, align 8
  store i32 16, ptr %3, align 8
  br label %Vec_IntPush.exit17

23:                                               ; preds = %14
  %24 = shl nuw nsw i32 %9, 1
  %25 = load ptr, ptr %6, align 8
  %.not9.i9.i14 = icmp eq ptr %25, null
  %26 = zext nneg i32 %24 to i64
  %27 = shl nuw nsw i64 %26, 2
  br i1 %.not9.i9.i14, label %30, label %28

28:                                               ; preds = %23
  %29 = tail call ptr @realloc(ptr noundef nonnull %25, i64 noundef %27) #23
  br label %32

30:                                               ; preds = %23
  %31 = tail call noalias ptr @malloc(i64 noundef %27) #21
  br label %32

32:                                               ; preds = %30, %28
  %33 = phi ptr [ %29, %28 ], [ %31, %30 ]
  store ptr %33, ptr %6, align 8
  store i32 %24, ptr %3, align 8
  br label %Vec_IntPush.exit17

Vec_IntPush.exit17:                               ; preds = %.Vec_IntGrow.exit10_crit_edge.i11, %Vec_IntGrow.exit.i16, %32
  %34 = phi ptr [ %.pre.i13, %.Vec_IntGrow.exit10_crit_edge.i11 ], [ %33, %32 ], [ %22, %Vec_IntGrow.exit.i16 ]
  %35 = add nsw i32 %9, 1
  store i32 %35, ptr %4, align 4
  %36 = sext i32 %9 to i64
  %37 = getelementptr inbounds i32, ptr %34, i64 %36
  store i32 %11, ptr %37, align 4
  %38 = getelementptr inbounds nuw i8, ptr %.019, i64 8
  %39 = load i32, ptr %38, align 4
  %.not10 = icmp eq i32 %39, 0
  br i1 %.not10, label %._crit_edge, label %40

40:                                               ; preds = %Vec_IntPush.exit17
  %.val = load ptr, ptr %7, align 8
  %41 = getelementptr i8, ptr %.val, i64 8
  %.val.val = load ptr, ptr %41, align 8
  %42 = sext i32 %39 to i64
  %43 = getelementptr inbounds ptr, ptr %.val.val, i64 %42
  %44 = load ptr, ptr %43, align 8
  %.not = icmp eq ptr %44, null
  br i1 %.not, label %._crit_edge, label %thread-pre-split, !llvm.loop !24

._crit_edge:                                      ; preds = %Vec_IntPush.exit17, %40
  %.pre = load i32, ptr %4, align 4
  %45 = icmp sgt i32 %.pre, 1
  br i1 %45, label %.lr.ph.i.preheader, label %Vec_IntReverseOrder.exit

.lr.ph.i.preheader:                               ; preds = %._crit_edge
  %46 = load ptr, ptr %6, align 8
  %47 = lshr i32 %.pre, 1
  %48 = zext nneg i32 %47 to i64
  br label %.lr.ph.i

.lr.ph.i:                                         ; preds = %.lr.ph.i.preheader, %.lr.ph.i
  %indvars.iv.i = phi i64 [ %indvars.iv.next.i, %.lr.ph.i ], [ 0, %.lr.ph.i.preheader ]
  %49 = getelementptr inbounds nuw i32, ptr %46, i64 %indvars.iv.i
  %50 = load i32, ptr %49, align 4
  %51 = trunc nuw nsw i64 %indvars.iv.i to i32
  %52 = xor i32 %51, -1
  %53 = add i32 %.pre, %52
  %54 = sext i32 %53 to i64
  %55 = getelementptr inbounds i32, ptr %46, i64 %54
  %56 = load i32, ptr %55, align 4
  store i32 %56, ptr %49, align 4
  store i32 %50, ptr %55, align 4
  %indvars.iv.next.i = add nuw nsw i64 %indvars.iv.i, 1
  %exitcond.not = icmp eq i64 %indvars.iv.next.i, %48
  br i1 %exitcond.not, label %Vec_IntReverseOrder.exit, label %.lr.ph.i, !llvm.loop !25

Vec_IntReverseOrder.exit:                         ; preds = %.lr.ph.i, %Vec_IntPush.exit, %._crit_edge
  ret ptr %3
}